target datalayout = "e-m:e-p270:32:32-p271:32:32-p272:64:64-i64:64-i128:128-f80:128-n8:16:32:64-S128"
target triple = "x86_64-pc-linux-gnu"

%struct.lzma_filter_encoder = type { i64, ptr, ptr, ptr, ptr, i32, ptr }

; Function Attrs: nounwind uwtable
define internal ptr @encoder_find(i64 noundef %0) #1 {
  %2 = alloca ptr, align 8
  %3 = alloca i64, align 8
  %4 = alloca i64, align 8
  store i64 %0, ptr %3, align 8
  store i64 0, ptr %4, align 8
  br label %5

5:                                                ; preds = %19, %1
  %6 = load i64, ptr %4, align 8
  %7 = icmp ult i64 %6, 9
  br i1 %7, label %8, label %22

8:                                                ; preds = %5
  %9 = load i64, ptr %4, align 8
  %10 = getelementptr inbounds [9 x %struct.lzma_filter_encoder], ptr @encoders, i64 0, i64 %9
  %11 = getelementptr inbounds %struct.lzma_filter_encoder, ptr %10, i32 0, i32 0
  %12 = load i64, ptr %11, align 8
  %13 = load i64, ptr %3, align 8
  %14 = icmp eq i64 %12, %13
  br i1 %14, label %15, label %18

15:                                               ; preds = %8
  %16 = load i64, ptr %4, align 8
  %17 = getelementptr inbounds %struct.lzma_filter_encoder, ptr @encoders, i64 %16
  store ptr %17, ptr %2, align 8
  br label %23

18:                                               ; preds = %8
  br label %19

19:                                               ; preds = %18
  %20 = load i64, ptr %4, align 8
  %21 = add i64 %20, 1
  store i64 %21, ptr %4, align 8
  br label %5, !llvm.loop !5

22:                                               ; preds = %5
  store ptr null, ptr %2, align 8
  br label %23

23:                                               ; preds = %22, %15
  %24 = load ptr, ptr %2, align 8
  ret ptr %24
}