; Function Attrs: nofree norecurse nosync nounwind memory(none) uwtable
define internal noundef ptr @encoder_find(i64 noundef %0) #1 {
  br label %2

2:                                                ; preds = %1, %6
  %.07 = phi i64 [ 0, %1 ], [ %7, %6 ]
  %3 = getelementptr inbounds nuw [9 x %struct.lzma_filter_encoder], ptr @encoders, i64 0, i64 %.07
  %4 = load i64, ptr %3, align 8
  %5 = icmp eq i64 %4, %0
  br i1 %5, label %.loopexit, label %6

6:                                                ; preds = %2
  %7 = add nuw nsw i64 %.07, 1
  %exitcond.not = icmp eq i64 %7, 9
  br i1 %exitcond.not, label %.loopexit, label %2, !llvm.loop !5

.loopexit:                                        ; preds = %6, %2
  %.05 = phi ptr [ %3, %2 ], [ null, %6 ]
  ret ptr %.05
}